target datalayout = "e-m:e-p270:32:32-p271:32:32-p272:64:64-i64:64-i128:128-f80:128-n8:16:32:64-S128"
target triple = "x86_64-pc-linux-gnu"

%struct.BufferUsage = type { i64, i64, i64, i64, i64, i64, i64, i64, i64, i64, %struct.instr_time, %struct.instr_time, %struct.instr_time, %struct.instr_time, %struct.instr_time, %struct.instr_time }
%struct.instr_time = type { i64 }
%struct.BufFile = type { i32, ptr, i8, i8, i8, ptr, ptr, ptr, i32, i64, i32, i32, %union.PGAlignedBlock }
%union.PGAlignedBlock = type { double, [8184 x i8] }
%struct.timespec = type { i64, i64 }
%struct.iovec = type { ptr, i64 }

@.str.1 = private unnamed_addr constant [10 x i8] c"buffile.c\00", align 1
@.str.9 = private unnamed_addr constant [62 x i8] c"could not read from file set \22%s\22: read only %zu of %zu bytes\00", align 1
@.str.10 = private unnamed_addr constant [63 x i8] c"could not read from temporary file: read only %zu of %zu bytes\00", align 1
@__func__.BufFileReadCommon = private unnamed_addr constant [18 x i8] c"BufFileReadCommon\00", align 1
@track_io_timing = external global i8, align 1
@.str.11 = private unnamed_addr constant [29 x i8] c"could not read file \22%s\22: %m\00", align 1
@__func__.BufFileLoadBuffer = private unnamed_addr constant [18 x i8] c"BufFileLoadBuffer\00", align 1
@pgBufferUsage = external global %struct.BufferUsage, align 8

; Function Attrs: inlinehint nounwind uwtable
define internal i64 @FileRead(i32 noundef %0, ptr noundef %1, i64 noundef %2, i64 noundef %3, i32 noundef %4) #6 {
  %6 = alloca i32, align 4
  %7 = alloca ptr, align 8
  %8 = alloca i64, align 8
  %9 = alloca i64, align 8
  %10 = alloca i32, align 4
  %11 = alloca %struct.iovec, align 8
  store i32 %0, ptr %6, align 4
  store ptr %1, ptr %7, align 8
  store i64 %2, ptr %8, align 8
  store i64 %3, ptr %9, align 8
  store i32 %4, ptr %10, align 4
  call void @llvm.lifetime.start.p0(i64 16, ptr %11) #8
  %12 = getelementptr inbounds nuw %struct.iovec, ptr %11, i32 0, i32 0
  %13 = load ptr, ptr %7, align 8
  store ptr %13, ptr %12, align 8
  %14 = getelementptr inbounds nuw %struct.iovec, ptr %11, i32 0, i32 1
  %15 = load i64, ptr %8, align 8
  store i64 %15, ptr %14, align 8
  %16 = load i32, ptr %6, align 4
  %17 = load i64, ptr %9, align 8
  %18 = load i32, ptr %10, align 4
  %19 = call i64 @FileReadV(i32 noundef %16, ptr noundef %11, i32 noundef 1, i64 noundef %17, i32 noundef %18)
  call void @llvm.lifetime.end.p0(i64 16, ptr %11) #8
  ret i64 %19
}

; Function Attrs: inlinehint nounwind uwtable
define internal i64 @pg_clock_gettime_ns() #6 {
  %1 = alloca %struct.instr_time, align 8
  %2 = alloca %struct.timespec, align 8
  call void @llvm.lifetime.start.p0(i64 16, ptr %2) #8
  %3 = call i32 @clock_gettime(i32 noundef 1, ptr noundef %2) #8
  %4 = getelementptr inbounds nuw %struct.timespec, ptr %2, i32 0, i32 0
  %5 = load i64, ptr %4, align 8
  %6 = mul i64 %5, 1000000000
  %7 = getelementptr inbounds nuw %struct.timespec, ptr %2, i32 0, i32 1
  %8 = load i64, ptr %7, align 8
  %9 = add i64 %6, %8
  %10 = getelementptr inbounds nuw %struct.instr_time, ptr %1, i32 0, i32 0
  store i64 %9, ptr %10, align 8
  call void @llvm.lifetime.end.p0(i64 16, ptr %2) #8
  %11 = getelementptr inbounds nuw %struct.instr_time, ptr %1, i32 0, i32 0
  %12 = load i64, ptr %11, align 8
  ret i64 %12
}

; Function Attrs: nounwind uwtable
define internal void @BufFileLoadBuffer(ptr noundef %0) #0 {
  %2 = alloca ptr, align 8
  %3 = alloca i32, align 4
  %4 = alloca %struct.instr_time, align 8
  %5 = alloca %struct.instr_time, align 8
  %6 = alloca %struct.instr_time, align 8
  %7 = alloca %struct.instr_time, align 8
  store ptr %0, ptr %2, align 8
  call void @llvm.lifetime.start.p0(i64 4, ptr %3) #8
  call void @llvm.lifetime.start.p0(i64 8, ptr %4) #8
  call void @llvm.lifetime.start.p0(i64 8, ptr %5) #8
  %8 = load ptr, ptr %2, align 8
  %9 = getelementptr inbounds nuw %struct.BufFile, ptr %8, i32 0, i32 9
  %10 = load i64, ptr %9, align 8
  %11 = icmp sge i64 %10, 1073741824
  br i1 %11, label %12, label %28

12:                                               ; preds = %1
  %13 = load ptr, ptr %2, align 8
  %14 = getelementptr inbounds nuw %struct.BufFile, ptr %13, i32 0, i32 8
  %15 = load i32, ptr %14, align 8
  %16 = add i32 %15, 1
  %17 = load ptr, ptr %2, align 8
  %18 = getelementptr inbounds nuw %struct.BufFile, ptr %17, i32 0, i32 0
  %19 = load i32, ptr %18, align 8
  %20 = icmp slt i32 %16, %19
  br i1 %20, label %21, label %28

21:                                               ; preds = %12
  %22 = load ptr, ptr %2, align 8
  %23 = getelementptr inbounds nuw %struct.BufFile, ptr %22, i32 0, i32 8
  %24 = load i32, ptr %23, align 8
  %25 = add i32 %24, 1
  store i32 %25, ptr %23, align 8
  %26 = load ptr, ptr %2, align 8
  %27 = getelementptr inbounds nuw %struct.BufFile, ptr %26, i32 0, i32 9
  store i64 0, ptr %27, align 8
  br label %28

28:                                               ; preds = %21, %12, %1
  %29 = load ptr, ptr %2, align 8
  %30 = getelementptr inbounds nuw %struct.BufFile, ptr %29, i32 0, i32 1
  %31 = load ptr, ptr %30, align 8
  %32 = load ptr, ptr %2, align 8
  %33 = getelementptr inbounds nuw %struct.BufFile, ptr %32, i32 0, i32 8
  %34 = load i32, ptr %33, align 8
  %35 = sext i32 %34 to i64
  %36 = getelementptr inbounds i32, ptr %31, i64 %35
  %37 = load i32, ptr %36, align 4
  store i32 %37, ptr %3, align 4
  %38 = load i8, ptr @track_io_timing, align 1, !range !4, !noundef !5
  %39 = trunc i8 %38 to i1
  br i1 %39, label %40, label %43

40:                                               ; preds = %28
  call void @llvm.lifetime.start.p0(i64 8, ptr %6) #8
  %41 = call i64 @pg_clock_gettime_ns()
  %42 = getelementptr inbounds nuw %struct.instr_time, ptr %6, i32 0, i32 0
  store i64 %41, ptr %42, align 8
  call void @llvm.memcpy.p0.p0.i64(ptr align 8 %4, ptr align 8 %6, i64 8, i1 false)
  call void @llvm.lifetime.end.p0(i64 8, ptr %6) #8
  br label %45

43:                                               ; preds = %28
  %44 = getelementptr inbounds nuw %struct.instr_time, ptr %4, i32 0, i32 0
  store i64 0, ptr %44, align 8
  br label %45

45:                                               ; preds = %43, %40
  %46 = load i32, ptr %3, align 4
  %47 = load ptr, ptr %2, align 8
  %48 = getelementptr inbounds nuw %struct.BufFile, ptr %47, i32 0, i32 12
  %49 = getelementptr inbounds [8192 x i8], ptr %48, i64 0, i64 0
  %50 = load ptr, ptr %2, align 8
  %51 = getelementptr inbounds nuw %struct.BufFile, ptr %50, i32 0, i32 9
  %52 = load i64, ptr %51, align 8
  %53 = call i64 @FileRead(i32 noundef %46, ptr noundef %49, i64 noundef 8192, i64 noundef %52, i32 noundef 167772163)
  %54 = trunc i64 %53 to i32
  %55 = load ptr, ptr %2, align 8
  %56 = getelementptr inbounds nuw %struct.BufFile, ptr %55, i32 0, i32 11
  store i32 %54, ptr %56, align 4
  %57 = load ptr, ptr %2, align 8
  %58 = getelementptr inbounds nuw %struct.BufFile, ptr %57, i32 0, i32 11
  %59 = load i32, ptr %58, align 4
  %60 = icmp slt i32 %59, 0
  br i1 %60, label %61, label %77

61:                                               ; preds = %45
  %62 = load ptr, ptr %2, align 8
  %63 = getelementptr inbounds nuw %struct.BufFile, ptr %62, i32 0, i32 11
  store i32 0, ptr %63, align 4
  br label %64

64:                                               ; preds = %61
  br i1 true, label %65, label %67

65:                                               ; preds = %64
  %66 = call zeroext i1 @errstart_cold(i32 noundef 21, ptr noundef null) #9
  br i1 %66, label %69, label %74

67:                                               ; preds = %64
  %68 = call zeroext i1 @errstart(i32 noundef 21, ptr noundef null)
  br i1 %68, label %69, label %74

69:                                               ; preds = %67, %65
  %70 = call i32 @errcode_for_file_access()
  %71 = load i32, ptr %3, align 4
  %72 = call ptr @FilePathName(i32 noundef %71)
  %73 = call i32 (ptr, ...) @errmsg(ptr noundef @.str.11, ptr noundef %72)
  call void @errfinish(ptr noundef @.str.1, i32 noundef 471, ptr noundef @__func__.BufFileLoadBuffer)
  br label %74

74:                                               ; preds = %69, %67, %65
  unreachable

75:                                               ; No predecessors!
  br label %76

76:                                               ; preds = %75
  br label %77

77:                                               ; preds = %76, %45
  %78 = load i8, ptr @track_io_timing, align 1, !range !4, !noundef !5
  %79 = trunc i8 %78 to i1
  br i1 %79, label %80, label %90

80:                                               ; preds = %77
  call void @llvm.lifetime.start.p0(i64 8, ptr %7) #8
  %81 = call i64 @pg_clock_gettime_ns()
  %82 = getelementptr inbounds nuw %struct.instr_time, ptr %7, i32 0, i32 0
  store i64 %81, ptr %82, align 8
  call void @llvm.memcpy.p0.p0.i64(ptr align 8 %5, ptr align 8 %7, i64 8, i1 false)
  call void @llvm.lifetime.end.p0(i64 8, ptr %7) #8
  %83 = getelementptr inbounds nuw %struct.instr_time, ptr %5, i32 0, i32 0
  %84 = load i64, ptr %83, align 8
  %85 = getelementptr inbounds nuw %struct.instr_time, ptr %4, i32 0, i32 0
  %86 = load i64, ptr %85, align 8
  %87 = sub i64 %84, %86
  %88 = load i64, ptr getelementptr inbounds nuw (%struct.BufferUsage, ptr @pgBufferUsage, i32 0, i32 14), align 8
  %89 = add i64 %88, %87
  store i64 %89, ptr getelementptr inbounds nuw (%struct.BufferUsage, ptr @pgBufferUsage, i32 0, i32 14), align 8
  br label %90

90:                                               ; preds = %80, %77
  %91 = load ptr, ptr %2, align 8
  %92 = getelementptr inbounds nuw %struct.BufFile, ptr %91, i32 0, i32 11
  %93 = load i32, ptr %92, align 4
  %94 = icmp sgt i32 %93, 0
  br i1 %94, label %95, label %98

95:                                               ; preds = %90
  %96 = load i64, ptr getelementptr inbounds nuw (%struct.BufferUsage, ptr @pgBufferUsage, i32 0, i32 8), align 8
  %97 = add i64 %96, 1
  store i64 %97, ptr getelementptr inbounds nuw (%struct.BufferUsage, ptr @pgBufferUsage, i32 0, i32 8), align 8
  br label %98

98:                                               ; preds = %95, %90
  call void @llvm.lifetime.end.p0(i64 8, ptr %5) #8
  call void @llvm.lifetime.end.p0(i64 8, ptr %4) #8
  call void @llvm.lifetime.end.p0(i64 4, ptr %3) #8
  ret void
}

; Function Attrs: nounwind uwtable
define internal void @BufFileFlush(ptr noundef %0) #0 {
  %2 = alloca ptr, align 8
  store ptr %0, ptr %2, align 8
  %3 = load ptr, ptr %2, align 8
  %4 = getelementptr inbounds nuw %struct.BufFile, ptr %3, i32 0, i32 3
  %5 = load i8, ptr %4, align 1, !range !4, !noundef !5
  %6 = trunc i8 %5 to i1
  br i1 %6, label %7, label %9

7:                                                ; preds = %1
  %8 = load ptr, ptr %2, align 8
  call void @BufFileDumpBuffer(ptr noundef %8)
  br label %9

9:                                                ; preds = %7, %1
  ret void
}

; Function Attrs: nounwind uwtable
define internal i64 @BufFileReadCommon(ptr noundef %0, ptr noundef %1, i64 noundef %2, i1 noundef zeroext %3, i1 noundef zeroext %4) #0 {
  %6 = alloca ptr, align 8
  %7 = alloca ptr, align 8
  %8 = alloca i64, align 8
  %9 = alloca i8, align 1
  %10 = alloca i8, align 1
  %11 = alloca i64, align 8
  %12 = alloca i64, align 8
  %13 = alloca i64, align 8
  store ptr %0, ptr %6, align 8
  store ptr %1, ptr %7, align 8
  store i64 %2, ptr %8, align 8
  %14 = zext i1 %3 to i8
  store i8 %14, ptr %9, align 1
  %15 = zext i1 %4 to i8
  store i8 %15, ptr %10, align 1
  call void @llvm.lifetime.start.p0(i64 8, ptr %11) #8
  %16 = load i64, ptr %8, align 8
  store i64 %16, ptr %11, align 8
  call void @llvm.lifetime.start.p0(i64 8, ptr %12) #8
  store i64 0, ptr %12, align 8
  call void @llvm.lifetime.start.p0(i64 8, ptr %13) #8
  %17 = load ptr, ptr %6, align 8
  call void @BufFileFlush(ptr noundef %17)
  br label %18

18:                                               ; preds = %63, %5
  %19 = load i64, ptr %8, align 8
  %20 = icmp ugt i64 %19, 0
  br i1 %20, label %21, label %90

21:                                               ; preds = %18
  %22 = load ptr, ptr %6, align 8
  %23 = getelementptr inbounds nuw %struct.BufFile, ptr %22, i32 0, i32 10
  %24 = load i32, ptr %23, align 8
  %25 = load ptr, ptr %6, align 8
  %26 = getelementptr inbounds nuw %struct.BufFile, ptr %25, i32 0, i32 11
  %27 = load i32, ptr %26, align 4
  %28 = icmp sge i32 %24, %27
  br i1 %28, label %29, label %49

29:                                               ; preds = %21
  %30 = load ptr, ptr %6, align 8
  %31 = getelementptr inbounds nuw %struct.BufFile, ptr %30, i32 0, i32 10
  %32 = load i32, ptr %31, align 8
  %33 = sext i32 %32 to i64
  %34 = load ptr, ptr %6, align 8
  %35 = getelementptr inbounds nuw %struct.BufFile, ptr %34, i32 0, i32 9
  %36 = load i64, ptr %35, align 8
  %37 = add i64 %36, %33
  store i64 %37, ptr %35, align 8
  %38 = load ptr, ptr %6, align 8
  %39 = getelementptr inbounds nuw %struct.BufFile, ptr %38, i32 0, i32 10
  store i32 0, ptr %39, align 8
  %40 = load ptr, ptr %6, align 8
  %41 = getelementptr inbounds nuw %struct.BufFile, ptr %40, i32 0, i32 11
  store i32 0, ptr %41, align 4
  %42 = load ptr, ptr %6, align 8
  call void @BufFileLoadBuffer(ptr noundef %42)
  %43 = load ptr, ptr %6, align 8
  %44 = getelementptr inbounds nuw %struct.BufFile, ptr %43, i32 0, i32 11
  %45 = load i32, ptr %44, align 4
  %46 = icmp sle i32 %45, 0
  br i1 %46, label %47, label %48

47:                                               ; preds = %29
  br label %90

48:                                               ; preds = %29
  br label %49

49:                                               ; preds = %48, %21
  %50 = load ptr, ptr %6, align 8
  %51 = getelementptr inbounds nuw %struct.BufFile, ptr %50, i32 0, i32 11
  %52 = load i32, ptr %51, align 4
  %53 = load ptr, ptr %6, align 8
  %54 = getelementptr inbounds nuw %struct.BufFile, ptr %53, i32 0, i32 10
  %55 = load i32, ptr %54, align 8
  %56 = sub i32 %52, %55
  %57 = sext i32 %56 to i64
  store i64 %57, ptr %13, align 8
  %58 = load i64, ptr %13, align 8
  %59 = load i64, ptr %8, align 8
  %60 = icmp ugt i64 %58, %59
  br i1 %60, label %61, label %63

61:                                               ; preds = %49
  %62 = load i64, ptr %8, align 8
  store i64 %62, ptr %13, align 8
  br label %63

63:                                               ; preds = %61, %49
  %64 = load ptr, ptr %7, align 8
  %65 = load ptr, ptr %6, align 8
  %66 = getelementptr inbounds nuw %struct.BufFile, ptr %65, i32 0, i32 12
  %67 = getelementptr inbounds [8192 x i8], ptr %66, i64 0, i64 0
  %68 = load ptr, ptr %6, align 8
  %69 = getelementptr inbounds nuw %struct.BufFile, ptr %68, i32 0, i32 10
  %70 = load i32, ptr %69, align 8
  %71 = sext i32 %70 to i64
  %72 = getelementptr inbounds i8, ptr %67, i64 %71
  %73 = load i64, ptr %13, align 8
  call void @llvm.memcpy.p0.p0.i64(ptr align 1 %64, ptr align 1 %72, i64 %73, i1 false)
  %74 = load i64, ptr %13, align 8
  %75 = load ptr, ptr %6, align 8
  %76 = getelementptr inbounds nuw %struct.BufFile, ptr %75, i32 0, i32 10
  %77 = load i32, ptr %76, align 8
  %78 = sext i32 %77 to i64
  %79 = add i64 %78, %74
  %80 = trunc i64 %79 to i32
  store i32 %80, ptr %76, align 8
  %81 = load ptr, ptr %7, align 8
  %82 = load i64, ptr %13, align 8
  %83 = getelementptr inbounds nuw i8, ptr %81, i64 %82
  store ptr %83, ptr %7, align 8
  %84 = load i64, ptr %13, align 8
  %85 = load i64, ptr %8, align 8
  %86 = sub i64 %85, %84
  store i64 %86, ptr %8, align 8
  %87 = load i64, ptr %13, align 8
  %88 = load i64, ptr %12, align 8
  %89 = add i64 %88, %87
  store i64 %89, ptr %12, align 8
  br label %18, !llvm.loop !8

90:                                               ; preds = %47, %18
  %91 = load i8, ptr %9, align 1, !range !4, !noundef !5
  %92 = trunc i8 %91 to i1
  br i1 %92, label %93, label %130

93:                                               ; preds = %90
  %94 = load i64, ptr %12, align 8
  %95 = load i64, ptr %11, align 8
  %96 = icmp ne i64 %94, %95
  br i1 %96, label %97, label %130

97:                                               ; preds = %93
  %98 = load i64, ptr %12, align 8
  %99 = icmp eq i64 %98, 0
  br i1 %99, label %100, label %103

100:                                              ; preds = %97
  %101 = load i8, ptr %10, align 1, !range !4, !noundef !5
  %102 = trunc i8 %101 to i1
  br i1 %102, label %130, label %103

103:                                              ; preds = %100, %97
  br label %104

104:                                              ; preds = %103
  br i1 true, label %105, label %107

105:                                              ; preds = %104
  %106 = call zeroext i1 @errstart_cold(i32 noundef 21, ptr noundef null) #9
  br i1 %106, label %109, label %127

107:                                              ; preds = %104
  %108 = call zeroext i1 @errstart(i32 noundef 21, ptr noundef null)
  br i1 %108, label %109, label %127

109:                                              ; preds = %107, %105
  %110 = call i32 @errcode_for_file_access()
  %111 = load ptr, ptr %6, align 8
  %112 = getelementptr inbounds nuw %struct.BufFile, ptr %111, i32 0, i32 6
  %113 = load ptr, ptr %112, align 8
  %114 = icmp ne ptr %113, null
  br i1 %114, label %115, label %122

115:                                              ; preds = %109
  %116 = load ptr, ptr %6, align 8
  %117 = getelementptr inbounds nuw %struct.BufFile, ptr %116, i32 0, i32 6
  %118 = load ptr, ptr %117, align 8
  %119 = load i64, ptr %12, align 8
  %120 = load i64, ptr %11, align 8
  %121 = call i32 (ptr, ...) @errmsg(ptr noundef @.str.9, ptr noundef %118, i64 noundef %119, i64 noundef %120)
  br label %126

122:                                              ; preds = %109
  %123 = load i64, ptr %12, align 8
  %124 = load i64, ptr %11, align 8
  %125 = call i32 (ptr, ...) @errmsg(ptr noundef @.str.10, i64 noundef %123, i64 noundef %124)
  br label %126

126:                                              ; preds = %122, %115
  call void @errfinish(ptr noundef @.str.1, i32 noundef 635, ptr noundef @__func__.BufFileReadCommon)
  br label %127

127:                                              ; preds = %126, %107, %105
  unreachable

128:                                              ; No predecessors!
  br label %129

129:                                              ; preds = %128
  br label %130

130:                                              ; preds = %129, %100, %93, %90
  %131 = load i64, ptr %12, align 8
  call void @llvm.lifetime.end.p0(i64 8, ptr %13) #8
  call void @llvm.lifetime.end.p0(i64 8, ptr %12) #8
  call void @llvm.lifetime.end.p0(i64 8, ptr %11) #8
  ret i64 %131
}