; Function Attrs: nounwind uwtable
define internal fastcc i64 @BufFileReadCommon(ptr noundef %0, ptr noundef writeonly captures(none) %1, i64 noundef %2, i1 noundef zeroext %3, i1 noundef zeroext %4) unnamed_addr #0 {
  %6 = alloca %struct.timespec, align 8
  %7 = alloca %struct.iovec, align 8
  %8 = alloca %struct.timespec, align 8
  %9 = getelementptr inbounds nuw i8, ptr %0, i64 17
  %10 = load i8, ptr %9, align 1, !range !5, !noundef !6
  %11 = trunc nuw i8 %10 to i1
  br i1 %11, label %12, label %BufFileFlush.exit

12:                                               ; preds = %5
  tail call fastcc void @BufFileDumpBuffer(ptr noundef nonnull %0)
  br label %BufFileFlush.exit

BufFileFlush.exit:                                ; preds = %5, %12
  %.not55 = icmp eq i64 %2, 0
  br i1 %.not55, label %BufFileLoadBuffer.exit._crit_edge, label %.lr.ph

.lr.ph:                                           ; preds = %BufFileFlush.exit
  %13 = getelementptr inbounds nuw i8, ptr %0, i64 64
  %14 = getelementptr inbounds nuw i8, ptr %0, i64 68
  %15 = getelementptr inbounds nuw i8, ptr %0, i64 56
  %16 = getelementptr inbounds nuw i8, ptr %0, i64 48
  %17 = getelementptr inbounds nuw i8, ptr %0, i64 8
  %18 = getelementptr inbounds nuw i8, ptr %8, i64 8
  %19 = getelementptr inbounds nuw i8, ptr %0, i64 72
  %20 = getelementptr inbounds nuw i8, ptr %7, i64 8
  %21 = getelementptr inbounds nuw i8, ptr %6, i64 8
  %.pre = load i32, ptr %13, align 8
  br label %22

22:                                               ; preds = %.lr.ph, %76
  %23 = phi i32 [ %.pre, %.lr.ph ], [ %85, %76 ]
  %.03958 = phi i64 [ 0, %.lr.ph ], [ %88, %76 ]
  %.04057 = phi ptr [ %1, %.lr.ph ], [ %86, %76 ]
  %.04156 = phi i64 [ %2, %.lr.ph ], [ %87, %76 ]
  %24 = load i32, ptr %14, align 4
  %.not46 = icmp slt i32 %23, %24
  br i1 %.not46, label %76, label %25

25:                                               ; preds = %22
  %26 = sext i32 %23 to i64
  %27 = load i64, ptr %15, align 8
  %28 = add i64 %27, %26
  store i64 %28, ptr %15, align 8
  store i32 0, ptr %13, align 8
  store i32 0, ptr %14, align 4
  %29 = icmp sgt i64 %28, 1073741823
  %30 = load i32, ptr %16, align 8
  br i1 %29, label %31, label %._crit_edge.i

31:                                               ; preds = %25
  %32 = add i32 %30, 1
  %33 = load i32, ptr %0, align 8
  %34 = icmp slt i32 %32, %33
  br i1 %34, label %35, label %._crit_edge.i

35:                                               ; preds = %31
  store i32 %32, ptr %16, align 8
  store i64 0, ptr %15, align 8
  br label %._crit_edge.i

._crit_edge.i:                                    ; preds = %35, %31, %25
  %36 = phi i64 [ 0, %35 ], [ %28, %31 ], [ %28, %25 ]
  %37 = phi i32 [ %32, %35 ], [ %30, %31 ], [ %30, %25 ]
  %38 = load ptr, ptr %17, align 8
  %39 = sext i32 %37 to i64
  %40 = getelementptr inbounds i32, ptr %38, i64 %39
  %41 = load i32, ptr %40, align 4
  %42 = load i8, ptr @track_io_timing, align 1, !range !5, !noundef !6
  %43 = trunc nuw i8 %42 to i1
  br i1 %43, label %44, label %48

44:                                               ; preds = %._crit_edge.i
  call void @llvm.lifetime.start.p0(i64 16, ptr nonnull %8) #10
  %45 = call i32 @clock_gettime(i32 noundef 1, ptr noundef nonnull %8) #10
  %46 = load i64, ptr %8, align 8
  %.neg.i = mul i64 %46, -1000000000
  %47 = load i64, ptr %18, align 8
  %.neg17.i = sub i64 %.neg.i, %47
  call void @llvm.lifetime.end.p0(i64 16, ptr nonnull %8) #10
  %.pre19.i = load i64, ptr %15, align 8
  br label %48

48:                                               ; preds = %44, %._crit_edge.i
  %49 = phi i64 [ %.pre19.i, %44 ], [ %36, %._crit_edge.i ]
  %.sroa.03.0.neg18.i = phi i64 [ %.neg17.i, %44 ], [ 0, %._crit_edge.i ]
  call void @llvm.lifetime.start.p0(i64 16, ptr nonnull %7) #10
  store ptr %19, ptr %7, align 8
  store i64 8192, ptr %20, align 8
  %50 = call i64 @FileReadV(i32 noundef %41, ptr noundef nonnull %7, i32 noundef 1, i64 noundef %49, i32 noundef 167772163) #10
  call void @llvm.lifetime.end.p0(i64 16, ptr nonnull %7) #10
  %51 = trunc i64 %50 to i32
  store i32 %51, ptr %14, align 4
  %52 = icmp slt i32 %51, 0
  br i1 %52, label %53, label %58

53:                                               ; preds = %48
  store i32 0, ptr %14, align 4
  %54 = call zeroext i1 @errstart_cold(i32 noundef 21, ptr noundef null) #11
  call void @llvm.assume(i1 %54)
  %55 = call i32 @errcode_for_file_access() #10
  %56 = call ptr @FilePathName(i32 noundef %41) #10
  %57 = call i32 (ptr, ...) @errmsg(ptr noundef nonnull @.str.11, ptr noundef %56) #10
  call void @errfinish(ptr noundef nonnull @.str.1, i32 noundef 471, ptr noundef nonnull @__func__.BufFileLoadBuffer) #10
  unreachable

58:                                               ; preds = %48
  %59 = load i8, ptr @track_io_timing, align 1, !range !5, !noundef !6
  %60 = trunc nuw i8 %59 to i1
  br i1 %60, label %61, label %70

61:                                               ; preds = %58
  call void @llvm.lifetime.start.p0(i64 16, ptr nonnull %6) #10
  %62 = call i32 @clock_gettime(i32 noundef 1, ptr noundef nonnull %6) #10
  %63 = load i64, ptr %6, align 8
  %64 = mul i64 %63, 1000000000
  %65 = load i64, ptr %21, align 8
  call void @llvm.lifetime.end.p0(i64 16, ptr nonnull %6) #10
  %66 = load i64, ptr getelementptr inbounds nuw (i8, ptr @pgBufferUsage, i64 112), align 8
  %67 = add i64 %65, %.sroa.03.0.neg18.i
  %68 = add i64 %67, %64
  %69 = add i64 %68, %66
  store i64 %69, ptr getelementptr inbounds nuw (i8, ptr @pgBufferUsage, i64 112), align 8
  %.pr.i = load i32, ptr %14, align 4
  br label %70

70:                                               ; preds = %61, %58
  %71 = phi i32 [ %.pr.i, %61 ], [ %51, %58 ]
  %72 = icmp sgt i32 %71, 0
  br i1 %72, label %BufFileLoadBuffer.exit, label %BufFileLoadBuffer.exit._crit_edge

BufFileLoadBuffer.exit:                           ; preds = %70
  %73 = load i64, ptr getelementptr inbounds nuw (i8, ptr @pgBufferUsage, i64 64), align 8
  %74 = add i64 %73, 1
  store i64 %74, ptr getelementptr inbounds nuw (i8, ptr @pgBufferUsage, i64 64), align 8
  %.pre60 = load i32, ptr %14, align 4
  %75 = icmp slt i32 %.pre60, 1
  br i1 %75, label %BufFileLoadBuffer.exit._crit_edge, label %BufFileLoadBuffer.exit._crit_edge61

BufFileLoadBuffer.exit._crit_edge61:              ; preds = %BufFileLoadBuffer.exit
  %.pre62 = load i32, ptr %13, align 8
  br label %76

76:                                               ; preds = %BufFileLoadBuffer.exit._crit_edge61, %22
  %77 = phi i32 [ %.pre62, %BufFileLoadBuffer.exit._crit_edge61 ], [ %23, %22 ]
  %78 = phi i32 [ %.pre60, %BufFileLoadBuffer.exit._crit_edge61 ], [ %24, %22 ]
  %79 = sub i32 %78, %77
  %80 = sext i32 %79 to i64
  %spec.select = call i64 @llvm.umin.i64(i64 %.04156, i64 %80)
  %81 = sext i32 %77 to i64
  %82 = getelementptr inbounds i8, ptr %19, i64 %81
  call void @llvm.memcpy.p0.p0.i64(ptr align 1 %.04057, ptr nonnull align 1 %82, i64 %spec.select, i1 false)
  %83 = load i32, ptr %13, align 8
  %84 = trunc i64 %spec.select to i32
  %85 = add i32 %83, %84
  store i32 %85, ptr %13, align 8
  %86 = getelementptr inbounds nuw i8, ptr %.04057, i64 %spec.select
  %87 = sub i64 %.04156, %spec.select
  %88 = add i64 %spec.select, %.03958
  %.not = icmp eq i64 %87, 0
  br i1 %.not, label %BufFileLoadBuffer.exit._crit_edge, label %22, !llvm.loop !9

BufFileLoadBuffer.exit._crit_edge:                ; preds = %70, %76, %BufFileLoadBuffer.exit, %BufFileFlush.exit
  %.039.lcssa = phi i64 [ 0, %BufFileFlush.exit ], [ %.03958, %70 ], [ %.03958, %BufFileLoadBuffer.exit ], [ %88, %76 ]
  %.not47 = icmp eq i64 %.039.lcssa, %2
  %not. = xor i1 %3, true
  %89 = icmp eq i64 %.039.lcssa, 0
  %brmerge.not = and i1 %4, %89
  %90 = or i1 %.not47, %brmerge.not
  %or.cond = select i1 %not., i1 true, i1 %90
  br i1 %or.cond, label %101, label %91

91:                                               ; preds = %BufFileLoadBuffer.exit._crit_edge
  %92 = call zeroext i1 @errstart_cold(i32 noundef 21, ptr noundef null) #11
  call void @llvm.assume(i1 %92)
  %93 = call i32 @errcode_for_file_access() #10
  %94 = getelementptr inbounds nuw i8, ptr %0, i64 32
  %95 = load ptr, ptr %94, align 8
  %.not48 = icmp eq ptr %95, null
  br i1 %.not48, label %98, label %96

96:                                               ; preds = %91
  %97 = call i32 (ptr, ...) @errmsg(ptr noundef nonnull @.str.9, ptr noundef nonnull %95, i64 noundef %.039.lcssa, i64 noundef %2) #10
  br label %100

98:                                               ; preds = %91
  %99 = call i32 (ptr, ...) @errmsg(ptr noundef nonnull @.str.10, i64 noundef %.039.lcssa, i64 noundef %2) #10
  br label %100

100:                                              ; preds = %98, %96
  call void @errfinish(ptr noundef nonnull @.str.1, i32 noundef 635, ptr noundef nonnull @__func__.BufFileReadCommon) #10
  unreachable

101:                                              ; preds = %BufFileLoadBuffer.exit._crit_edge
  ret i64 %.039.lcssa
}